; Function Attrs: nounwind uwtable
define hidden { ptr, i64 } @b2SensorEndTouchEventArray_Create(i32 noundef %0) local_unnamed_addr #0 {
  %2 = icmp sgt i32 %0, 0
  br i1 %2, label %3, label %6

3:                                                ; preds = %1
  %4 = shl i32 %0, 4
  %5 = tail call ptr @b2Alloc(i32 noundef %4) #22
  %.sroa.3.12.insert.ext = zext nneg i32 %0 to i64
  %.sroa.3.12.insert.shift = shl nuw nsw i64 %.sroa.3.12.insert.ext, 32
  br label %6

6:                                                ; preds = %3, %1
  %.sroa.3.0 = phi i64 [ %.sroa.3.12.insert.shift, %3 ], [ 0, %1 ]
  %.sroa.0.0 = phi ptr [ %5, %3 ], [ null, %1 ]
  %.fca.0.insert = insertvalue { ptr, i64 } poison, ptr %.sroa.0.0, 0
  %.fca.1.insert = insertvalue { ptr, i64 } %.fca.0.insert, i64 %.sroa.3.0, 1
  ret { ptr, i64 } %.fca.1.insert
}